target datalayout = "e-m:e-p270:32:32-p271:32:32-p272:64:64-i64:64-i128:128-f80:128-n8:16:32:64-S128"
target triple = "x86_64-pc-linux-gnu"

%struct.wg_qqword = type { [32 x i8] }
%struct.wg_skey = type { %struct.wg_qqword, %struct.wg_qqword, %struct.wg_qqword }

@wg_decryption_supported = internal global i8 0, align 1
@.str.105 = private unnamed_addr constant [55 x i8] c"%s:%u: failed assertion \22DISSECTOR_ASSERT_NOT_REACHED\22\00", align 1
@.str.106 = private unnamed_addr constant [35 x i8] c"epan/dissectors/packet-wireguard.c\00", align 1
@wg_static_keys = internal global ptr null, align 8
@.str.109 = private unnamed_addr constant [29 x i8] c"%s:%u: failed assertion \22%s\22\00", align 1
@.str.110 = private unnamed_addr constant [7 x i8] c"r == 0\00", align 1
@wg_mac1_key.wg_label_mac1 = internal constant [9 x i8] c"mac1----\00", align 1

; Function Attrs: alwaysinline nounwind
define internal ptr @memcpy.inline(ptr noalias %0, ptr noalias %1, i64 %2) #11 {
  %4 = alloca ptr, align 8
  %5 = alloca ptr, align 8
  %6 = alloca i64, align 8
  store ptr %0, ptr %4, align 8
  store ptr %1, ptr %5, align 8
  store i64 %2, ptr %6, align 8
  %7 = load ptr, ptr %4, align 8
  %8 = load ptr, ptr %5, align 8
  %9 = load i64, ptr %6, align 8
  %10 = load ptr, ptr %4, align 8
  %11 = call i64 @llvm.objectsize.i64.p0(ptr %10, i1 false, i1 true, i1 true)
  %12 = call ptr @__memcpy_chk(ptr noundef %7, ptr noundef %8, i64 noundef %9, i64 noundef %11) #19
  ret ptr %12
}

; Function Attrs: null_pointer_is_valid sspstrong uwtable
define internal void @wg_mac1_key(ptr noundef %0, ptr noundef %1) #0 {
  %3 = alloca ptr, align 8
  %4 = alloca ptr, align 8
  %5 = alloca ptr, align 8
  store ptr %0, ptr %3, align 8
  store ptr %1, ptr %4, align 8
  call void @llvm.lifetime.start.p0(i64 8, ptr %5) #19
  %6 = call i32 @gcry_md_open(ptr noundef %5, i32 noundef 322, i32 noundef 0)
  %7 = icmp eq i32 %6, 0
  br i1 %7, label %8, label %21

8:                                                ; preds = %2
  %9 = load ptr, ptr %5, align 8
  call void @gcry_md_write(ptr noundef %9, ptr noundef @wg_mac1_key.wg_label_mac1, i64 noundef 8)
  %10 = load ptr, ptr %5, align 8
  %11 = load ptr, ptr %3, align 8
  %12 = getelementptr inbounds nuw %struct.wg_qqword, ptr %11, i32 0, i32 0
  %13 = getelementptr inbounds [32 x i8], ptr %12, i64 0, i64 0
  call void @gcry_md_write(ptr noundef %10, ptr noundef %13, i64 noundef 32)
  %14 = load ptr, ptr %4, align 8
  %15 = getelementptr inbounds nuw %struct.wg_qqword, ptr %14, i32 0, i32 0
  %16 = getelementptr inbounds [32 x i8], ptr %15, i64 0, i64 0
  %17 = load ptr, ptr %5, align 8
  %18 = call ptr @gcry_md_read(ptr noundef %17, i32 noundef 0)
  %19 = call ptr @memcpy.inline(ptr noundef %16, ptr noundef %18, i64 noundef 32) #19
  %20 = load ptr, ptr %5, align 8
  call void @gcry_md_close(ptr noundef %20)
  call void @llvm.lifetime.end.p0(i64 8, ptr %5) #19
  ret void

21:                                               ; preds = %2
  call void (ptr, ...) @proto_report_dissector_bug(ptr noundef @.str.105, ptr noundef @.str.106, i32 noundef 372) #22
  unreachable
}

; Function Attrs: inlinehint nounwind null_pointer_is_valid sspstrong uwtable
define internal zeroext i1 @has_private_key(ptr noundef %0) #8 {
  %2 = alloca ptr, align 8
  store ptr %0, ptr %2, align 8
  %3 = load ptr, ptr %2, align 8
  %4 = getelementptr inbounds nuw %struct.wg_qqword, ptr %3, i32 0, i32 0
  %5 = getelementptr [32 x i8], ptr %4, i64 0, i64 31
  %6 = load i8, ptr %5, align 1
  %7 = zext i8 %6 to i32
  %8 = and i32 %7, 64
  %9 = icmp ne i32 %8, 0
  %10 = xor i1 %9, true
  %11 = xor i1 %10, true
  ret i1 %11
}

; Function Attrs: null_pointer_is_valid sspstrong uwtable
define internal void @priv_to_pub(ptr noundef %0, ptr noundef %1) #0 {
  %3 = alloca ptr, align 8
  %4 = alloca ptr, align 8
  %5 = alloca i32, align 4
  store ptr %0, ptr %3, align 8
  store ptr %1, ptr %4, align 8
  call void @llvm.lifetime.start.p0(i64 4, ptr %5) #19
  %6 = load ptr, ptr %3, align 8
  %7 = getelementptr inbounds nuw %struct.wg_qqword, ptr %6, i32 0, i32 0
  %8 = getelementptr inbounds [32 x i8], ptr %7, i64 0, i64 0
  %9 = load ptr, ptr %4, align 8
  %10 = getelementptr inbounds nuw %struct.wg_qqword, ptr %9, i32 0, i32 0
  %11 = getelementptr inbounds [32 x i8], ptr %10, i64 0, i64 0
  %12 = call i32 @crypto_scalarmult_curve25519_base(ptr noundef %8, ptr noundef %11)
  store i32 %12, ptr %5, align 4
  %13 = load i32, ptr %5, align 4
  %14 = icmp eq i32 %13, 0
  br i1 %14, label %15, label %16

15:                                               ; preds = %2
  br label %18

16:                                               ; preds = %2
  call void (ptr, ...) @proto_report_dissector_bug(ptr noundef @.str.109, ptr noundef @.str.106, i32 noundef 300, ptr noundef @.str.110) #22
  unreachable

17:                                               ; No predecessors!
  br label %18

18:                                               ; preds = %17, %15
  call void @llvm.lifetime.end.p0(i64 4, ptr %5) #19
  ret void
}

; Function Attrs: nounwind null_pointer_is_valid sspstrong uwtable
define internal void @set_private_key(ptr noundef %0, ptr noundef %1) #3 {
  %3 = alloca ptr, align 8
  %4 = alloca ptr, align 8
  store ptr %0, ptr %3, align 8
  store ptr %1, ptr %4, align 8
  %5 = load ptr, ptr %3, align 8
  %6 = load ptr, ptr %4, align 8
  call void @llvm.memcpy.p0.p0.i64(ptr align 1 %5, ptr align 1 %6, i64 32, i1 false)
  %7 = load ptr, ptr %3, align 8
  %8 = getelementptr inbounds nuw %struct.wg_qqword, ptr %7, i32 0, i32 0
  %9 = getelementptr [32 x i8], ptr %8, i64 0, i64 31
  %10 = load i8, ptr %9, align 1
  %11 = zext i8 %10 to i32
  %12 = or i32 %11, 64
  %13 = trunc i32 %12 to i8
  store i8 %13, ptr %9, align 1
  ret void
}

; Function Attrs: null_pointer_is_valid sspstrong uwtable
define internal void @wg_add_static_key(ptr noundef %0, i1 noundef zeroext %1) #0 {
  %3 = alloca ptr, align 8
  %4 = alloca i8, align 1
  %5 = alloca ptr, align 8
  %6 = alloca i64, align 8
  %7 = alloca i64, align 8
  %8 = alloca ptr, align 8
  %9 = alloca ptr, align 8
  %10 = alloca ptr, align 8
  %11 = alloca i32, align 4
  store ptr %0, ptr %3, align 8
  %12 = zext i1 %1 to i8
  store i8 %12, ptr %4, align 1
  %13 = load i8, ptr @wg_decryption_supported, align 1, !range !6, !noundef !7
  %14 = trunc i8 %13 to i1
  br i1 %14, label %16, label %15

15:                                               ; preds = %2
  br label %92

16:                                               ; preds = %2
  call void @llvm.lifetime.start.p0(i64 8, ptr %5) #19
  call void @llvm.lifetime.start.p0(i64 8, ptr %6) #19
  store i64 1, ptr %6, align 8
  call void @llvm.lifetime.start.p0(i64 8, ptr %7) #19
  store i64 96, ptr %7, align 8
  call void @llvm.lifetime.start.p0(i64 8, ptr %8) #19
  %17 = load i64, ptr %7, align 8
  %18 = icmp eq i64 %17, 1
  br i1 %18, label %19, label %22

19:                                               ; preds = %16
  %20 = load i64, ptr %6, align 8
  %21 = call noalias ptr @g_malloc0(i64 noundef %20) #24
  store ptr %21, ptr %8, align 8
  br label %43

22:                                               ; preds = %16
  %23 = load i64, ptr %6, align 8
  %24 = call i1 @llvm.is.constant.i64(i64 %23)
  br i1 %24, label %25, label %38

25:                                               ; preds = %22
  %26 = load i64, ptr %7, align 8
  %27 = icmp eq i64 %26, 0
  br i1 %27, label %33, label %28

28:                                               ; preds = %25
  %29 = load i64, ptr %6, align 8
  %30 = load i64, ptr %7, align 8
  %31 = udiv i64 -1, %30
  %32 = icmp ule i64 %29, %31
  br i1 %32, label %33, label %38

33:                                               ; preds = %28, %25
  %34 = load i64, ptr %6, align 8
  %35 = load i64, ptr %7, align 8
  %36 = mul i64 %34, %35
  %37 = call noalias ptr @g_malloc0(i64 noundef %36) #24
  store ptr %37, ptr %8, align 8
  br label %42

38:                                               ; preds = %28, %22
  %39 = load i64, ptr %6, align 8
  %40 = load i64, ptr %7, align 8
  %41 = call noalias ptr @g_malloc0_n(i64 noundef %39, i64 noundef %40) #25
  store ptr %41, ptr %8, align 8
  br label %42

42:                                               ; preds = %38, %33
  br label %43

43:                                               ; preds = %42, %19
  %44 = load ptr, ptr %8, align 8
  store ptr %44, ptr %9, align 8
  call void @llvm.lifetime.end.p0(i64 8, ptr %8) #19
  call void @llvm.lifetime.end.p0(i64 8, ptr %7) #19
  call void @llvm.lifetime.end.p0(i64 8, ptr %6) #19
  %45 = load ptr, ptr %9, align 8
  store ptr %45, ptr %5, align 8
  %46 = load i8, ptr %4, align 1, !range !6, !noundef !7
  %47 = trunc i8 %46 to i1
  br i1 %47, label %48, label %55

48:                                               ; preds = %43
  %49 = load ptr, ptr %5, align 8
  %50 = getelementptr inbounds nuw %struct.wg_skey, ptr %49, i32 0, i32 2
  %51 = load ptr, ptr %3, align 8
  call void @set_private_key(ptr noundef %50, ptr noundef %51)
  %52 = load ptr, ptr %5, align 8
  %53 = getelementptr inbounds nuw %struct.wg_skey, ptr %52, i32 0, i32 0
  %54 = load ptr, ptr %3, align 8
  call void @priv_to_pub(ptr noundef %53, ptr noundef %54)
  br label %59

55:                                               ; preds = %43
  %56 = load ptr, ptr %5, align 8
  %57 = getelementptr inbounds nuw %struct.wg_skey, ptr %56, i32 0, i32 0
  %58 = load ptr, ptr %3, align 8
  call void @llvm.memcpy.p0.p0.i64(ptr align 1 %57, ptr align 1 %58, i64 32, i1 false)
  br label %59

59:                                               ; preds = %55, %48
  call void @llvm.lifetime.start.p0(i64 8, ptr %10) #19
  %60 = load ptr, ptr @wg_static_keys, align 8
  %61 = load ptr, ptr %5, align 8
  %62 = getelementptr inbounds nuw %struct.wg_skey, ptr %61, i32 0, i32 0
  %63 = call ptr @g_hash_table_lookup(ptr noundef %60, ptr noundef %62)
  store ptr %63, ptr %10, align 8
  %64 = load ptr, ptr %10, align 8
  %65 = icmp ne ptr %64, null
  br i1 %65, label %66, label %80

66:                                               ; preds = %59
  %67 = load ptr, ptr %10, align 8
  %68 = getelementptr inbounds nuw %struct.wg_skey, ptr %67, i32 0, i32 2
  %69 = call zeroext i1 @has_private_key(ptr noundef %68)
  br i1 %69, label %78, label %70

70:                                               ; preds = %66
  %71 = load i8, ptr %4, align 1, !range !6, !noundef !7
  %72 = trunc i8 %71 to i1
  br i1 %72, label %73, label %78

73:                                               ; preds = %70
  %74 = load ptr, ptr %10, align 8
  %75 = getelementptr inbounds nuw %struct.wg_skey, ptr %74, i32 0, i32 2
  %76 = load ptr, ptr %5, align 8
  %77 = getelementptr inbounds nuw %struct.wg_skey, ptr %76, i32 0, i32 2
  call void @llvm.memcpy.p0.p0.i64(ptr align 1 %75, ptr align 1 %77, i64 32, i1 false)
  br label %78

78:                                               ; preds = %73, %70, %66
  %79 = load ptr, ptr %5, align 8
  call void @g_free(ptr noundef %79)
  store i32 1, ptr %11, align 4
  br label %90

80:                                               ; preds = %59
  %81 = load ptr, ptr %5, align 8
  %82 = getelementptr inbounds nuw %struct.wg_skey, ptr %81, i32 0, i32 0
  %83 = load ptr, ptr %5, align 8
  %84 = getelementptr inbounds nuw %struct.wg_skey, ptr %83, i32 0, i32 1
  call void @wg_mac1_key(ptr noundef %82, ptr noundef %84)
  %85 = load ptr, ptr @wg_static_keys, align 8
  %86 = load ptr, ptr %5, align 8
  %87 = getelementptr inbounds nuw %struct.wg_skey, ptr %86, i32 0, i32 0
  %88 = load ptr, ptr %5, align 8
  %89 = call i32 @g_hash_table_insert(ptr noundef %85, ptr noundef %87, ptr noundef %88)
  store i32 0, ptr %11, align 4
  br label %90

90:                                               ; preds = %80, %78
  call void @llvm.lifetime.end.p0(i64 8, ptr %10) #19
  call void @llvm.lifetime.end.p0(i64 8, ptr %5) #19
  %91 = load i32, ptr %11, align 4
  switch i32 %91, label %93 [
    i32 0, label %92
    i32 1, label %92
  ]

92:                                               ; preds = %15, %90, %90
  ret void

93:                                               ; preds = %90
  unreachable
}