; Function Attrs: null_pointer_is_valid sspstrong uwtable
define internal fastcc void @wg_add_static_key(ptr noundef %0, i1 noundef zeroext %1) unnamed_addr #0 {
  %3 = alloca ptr, align 8
  %.b32 = load i1, ptr @wg_decryption_supported, align 1
  br i1 %.b32, label %4, label %37

4:                                                ; preds = %2
  %5 = tail call noalias dereferenceable_or_null(96) ptr @g_malloc0(i64 noundef 96) #23
  br i1 %1, label %6, label %14

6:                                                ; preds = %4
  %7 = getelementptr inbounds nuw i8, ptr %5, i64 64
  tail call void @llvm.memcpy.p0.p0.i64(ptr noundef nonnull align 1 dereferenceable(32) %7, ptr noundef readonly align 1 dereferenceable(32) %0, i64 32, i1 false)
  %8 = getelementptr i8, ptr %5, i64 95
  %9 = load i8, ptr %8, align 1
  %10 = or i8 %9, 64
  store i8 %10, ptr %8, align 1
  %11 = tail call i32 @crypto_scalarmult_curve25519_base(ptr noundef %5, ptr noundef %0)
  %12 = icmp eq i32 %11, 0
  br i1 %12, label %priv_to_pub.exit, label %13

13:                                               ; preds = %6
  tail call void (ptr, ...) @proto_report_dissector_bug(ptr noundef nonnull @.str.109, ptr noundef nonnull @.str.106, i32 noundef 300, ptr noundef nonnull @.str.110) #21
  unreachable

14:                                               ; preds = %4
  tail call void @llvm.memcpy.p0.p0.i64(ptr noundef align 1 dereferenceable(32) %5, ptr noundef align 1 dereferenceable(32) %0, i64 32, i1 false)
  br label %priv_to_pub.exit

priv_to_pub.exit:                                 ; preds = %6, %14
  %15 = load ptr, ptr @wg_static_keys, align 8
  %16 = tail call ptr @g_hash_table_lookup(ptr noundef %15, ptr noundef %5)
  %.not = icmp eq ptr %16, null
  br i1 %.not, label %25, label %17

17:                                               ; preds = %priv_to_pub.exit
  %18 = getelementptr i8, ptr %16, i64 95
  %.val = load i8, ptr %18, align 1
  %19 = and i8 %.val, 64
  %20 = icmp eq i8 %19, 0
  %brmerge.not = and i1 %1, %20
  br i1 %brmerge.not, label %21, label %24

21:                                               ; preds = %17
  %22 = getelementptr inbounds nuw i8, ptr %16, i64 64
  %23 = getelementptr inbounds nuw i8, ptr %5, i64 64
  tail call void @llvm.memcpy.p0.p0.i64(ptr noundef nonnull align 1 dereferenceable(32) %22, ptr noundef nonnull align 1 dereferenceable(32) %23, i64 32, i1 false)
  br label %24

24:                                               ; preds = %17, %21
  tail call void @g_free(ptr noundef %5)
  br label %37

25:                                               ; preds = %priv_to_pub.exit
  call void @llvm.lifetime.start.p0(i64 8, ptr nonnull %3) #18
  %26 = call i32 @gcry_md_open(ptr noundef nonnull %3, i32 noundef 322, i32 noundef 0)
  %27 = icmp eq i32 %26, 0
  br i1 %27, label %wg_mac1_key.exit, label %28

28:                                               ; preds = %25
  call void (ptr, ...) @proto_report_dissector_bug(ptr noundef nonnull @.str.105, ptr noundef nonnull @.str.106, i32 noundef 372) #21
  unreachable

wg_mac1_key.exit:                                 ; preds = %25
  %29 = getelementptr inbounds nuw i8, ptr %5, i64 32
  %30 = load ptr, ptr %3, align 8
  call void @gcry_md_write(ptr noundef %30, ptr noundef nonnull @wg_mac1_key.wg_label_mac1, i64 noundef 8)
  %31 = load ptr, ptr %3, align 8
  call void @gcry_md_write(ptr noundef %31, ptr noundef %5, i64 noundef 32)
  %32 = load ptr, ptr %3, align 8
  %33 = call ptr @gcry_md_read(ptr noundef %32, i32 noundef 0)
  call void @llvm.memcpy.p0.p0.i64(ptr noundef nonnull align 1 dereferenceable(32) %29, ptr noundef align 1 dereferenceable(32) %33, i64 noundef 32, i1 noundef false) #18
  %34 = load ptr, ptr %3, align 8
  call void @gcry_md_close(ptr noundef %34)
  call void @llvm.lifetime.end.p0(i64 8, ptr nonnull %3) #18
  %35 = load ptr, ptr @wg_static_keys, align 8
  %36 = call i32 @g_hash_table_insert(ptr noundef %35, ptr noundef %5, ptr noundef %5)
  br label %37

37:                                               ; preds = %24, %wg_mac1_key.exit, %2
  ret void
}